; Function Attrs: mustprogress nofree norecurse nosync nounwind willreturn memory(argmem: write) uwtable
define dso_local void @_ZN12CVQualifiersC2Ev(ptr nocapture noundef nonnull writeonly align 8 dereferenceable(96) %0) unnamed_addr #3 align 2 personality ptr @__gxx_personality_v0 {
  store ptr getelementptr inbounds ({ [4 x ptr] }, ptr @_ZTV12CVQualifiers, i64 0, i32 0, i64 2), ptr %0, align 8
  %2 = getelementptr inbounds i8, ptr %0, i64 8
  store i8 0, ptr %2, align 8
  %3 = getelementptr inbounds i8, ptr %0, i64 9
  store i8 0, ptr %3, align 1
  %4 = getelementptr inbounds i8, ptr %0, i64 16
  store ptr null, ptr %4, align 8
  %5 = getelementptr inbounds i8, ptr %0, i64 24
  store i32 0, ptr %5, align 8
  %6 = getelementptr inbounds i8, ptr %0, i64 32
  store ptr null, ptr %6, align 8
  %7 = getelementptr inbounds i8, ptr %0, i64 40
  store i32 0, ptr %7, align 8
  %8 = getelementptr inbounds i8, ptr %0, i64 48
  %9 = getelementptr inbounds i8, ptr %0, i64 72
  store ptr null, ptr %9, align 8
  %10 = getelementptr inbounds i8, ptr %0, i64 80
  store i32 0, ptr %10, align 8
  %11 = getelementptr inbounds i8, ptr %0, i64 88
  store ptr null, ptr %11, align 8
  tail call void @llvm.memset.p0.i64(ptr noundef nonnull align 8 dereferenceable(20) %8, i8 0, i64 20, i1 false)
  ret void
}